target datalayout = "e-m:e-p270:32:32-p271:32:32-p272:64:64-i64:64-i128:128-f80:128-n8:16:32:64-S128"
target triple = "x86_64-pc-linux-gnu"

%struct.Curl_cfilter = type { ptr, ptr, ptr, ptr, i32, i8 }
%struct.Curl_cftype = type { ptr, i32, i32, ptr, ptr, ptr, ptr, ptr, ptr, ptr, ptr, ptr, ptr, ptr, ptr, ptr }

; Function Attrs: nounwind uwtable
define dso_local i64 @Curl_cf_def_send(ptr noundef %0, ptr noundef %1, ptr noundef %2, i64 noundef %3, i1 noundef zeroext %4, ptr noundef %5) #0 {
  %7 = alloca ptr, align 8
  %8 = alloca ptr, align 8
  %9 = alloca ptr, align 8
  %10 = alloca i64, align 8
  %11 = alloca i8, align 1
  %12 = alloca ptr, align 8
  store ptr %0, ptr %7, align 8, !tbaa !4
  store ptr %1, ptr %8, align 8, !tbaa !9
  store ptr %2, ptr %9, align 8, !tbaa !57
  store i64 %3, ptr %10, align 8, !tbaa !58
  %13 = zext i1 %4 to i8
  store i8 %13, ptr %11, align 1, !tbaa !13
  store ptr %5, ptr %12, align 8, !tbaa !57
  %14 = load ptr, ptr %7, align 8, !tbaa !4
  %15 = getelementptr inbounds nuw %struct.Curl_cfilter, ptr %14, i32 0, i32 1
  %16 = load ptr, ptr %15, align 8, !tbaa !19
  %17 = icmp ne ptr %16, null
  br i1 %17, label %18, label %36

18:                                               ; preds = %6
  %19 = load ptr, ptr %7, align 8, !tbaa !4
  %20 = getelementptr inbounds nuw %struct.Curl_cfilter, ptr %19, i32 0, i32 1
  %21 = load ptr, ptr %20, align 8, !tbaa !19
  %22 = getelementptr inbounds nuw %struct.Curl_cfilter, ptr %21, i32 0, i32 0
  %23 = load ptr, ptr %22, align 8, !tbaa !24
  %24 = getelementptr inbounds nuw %struct.Curl_cftype, ptr %23, i32 0, i32 10
  %25 = load ptr, ptr %24, align 8, !tbaa !59
  %26 = load ptr, ptr %7, align 8, !tbaa !4
  %27 = getelementptr inbounds nuw %struct.Curl_cfilter, ptr %26, i32 0, i32 1
  %28 = load ptr, ptr %27, align 8, !tbaa !19
  %29 = load ptr, ptr %8, align 8, !tbaa !9
  %30 = load ptr, ptr %9, align 8, !tbaa !57
  %31 = load i64, ptr %10, align 8, !tbaa !58
  %32 = load i8, ptr %11, align 1, !tbaa !13, !range !60, !noundef !61
  %33 = trunc i8 %32 to i1
  %34 = load ptr, ptr %12, align 8, !tbaa !57
  %35 = call i64 %25(ptr noundef %28, ptr noundef %29, ptr noundef %30, i64 noundef %31, i1 noundef zeroext %33, ptr noundef %34)
  br label %37

36:                                               ; preds = %6
  br label %37

37:                                               ; preds = %36, %18
  %38 = phi i64 [ %35, %18 ], [ 56, %36 ]
  ret i64 %38
}