; Function Attrs: nounwind uwtable
define dso_local i64 @Curl_cf_def_send(ptr noundef readonly captures(none) %0, ptr noundef %1, ptr noundef %2, i64 noundef %3, i1 noundef zeroext %4, ptr noundef %5) local_unnamed_addr #1 {
  %7 = getelementptr inbounds nuw i8, ptr %0, i64 8
  %8 = load ptr, ptr %7, align 8, !tbaa !8
  %.not = icmp eq ptr %8, null
  br i1 %.not, label %14, label %9

9:                                                ; preds = %6
  %10 = load ptr, ptr %8, align 8, !tbaa !15
  %11 = getelementptr inbounds nuw i8, ptr %10, i64 72
  %12 = load ptr, ptr %11, align 8, !tbaa !46
  %13 = tail call i64 %12(ptr noundef nonnull %8, ptr noundef %1, ptr noundef %2, i64 noundef %3, i1 noundef zeroext %4, ptr noundef %5) #12
  br label %14

14:                                               ; preds = %6, %9
  %15 = phi i64 [ %13, %9 ], [ 56, %6 ]
  ret i64 %15
}